target datalayout = "e-m:e-p270:32:32-p271:32:32-p272:64:64-i64:64-i128:128-f80:128-n8:16:32:64-S128"
target triple = "x86_64-pc-linux-gnu"

%struct.strbuf = type { i64, i64, ptr }

; Function Attrs: inlinehint nounwind uwtable
define internal i64 @strbuf_avail(ptr noundef %0) #3 {
  %2 = alloca ptr, align 8
  store ptr %0, ptr %2, align 8, !tbaa !4
  %3 = load ptr, ptr %2, align 8, !tbaa !4
  %4 = getelementptr inbounds nuw %struct.strbuf, ptr %3, i32 0, i32 0
  %5 = load i64, ptr %4, align 8, !tbaa !37
  %6 = icmp ne i64 %5, 0
  br i1 %6, label %7, label %16

7:                                                ; preds = %1
  %8 = load ptr, ptr %2, align 8, !tbaa !4
  %9 = getelementptr inbounds nuw %struct.strbuf, ptr %8, i32 0, i32 0
  %10 = load i64, ptr %9, align 8, !tbaa !37
  %11 = load ptr, ptr %2, align 8, !tbaa !4
  %12 = getelementptr inbounds nuw %struct.strbuf, ptr %11, i32 0, i32 1
  %13 = load i64, ptr %12, align 8, !tbaa !21
  %14 = sub i64 %10, %13
  %15 = sub i64 %14, 1
  br label %17

16:                                               ; preds = %1
  br label %17

17:                                               ; preds = %16, %7
  %18 = phi i64 [ %15, %7 ], [ 0, %16 ]
  ret i64 %18
}

; Function Attrs: inlinehint nounwind uwtable
define internal void @strbuf_addch(ptr noundef %0, i32 noundef %1) #3 {
  %3 = alloca ptr, align 8
  %4 = alloca i32, align 4
  store ptr %0, ptr %3, align 8, !tbaa !4
  store i32 %1, ptr %4, align 4, !tbaa !19
  %5 = load ptr, ptr %3, align 8, !tbaa !4
  %6 = call i64 @strbuf_avail(ptr noundef %5)
  %7 = icmp ne i64 %6, 0
  br i1 %7, label %10, label %8

8:                                                ; preds = %2
  %9 = load ptr, ptr %3, align 8, !tbaa !4
  call void @strbuf_grow(ptr noundef %9, i64 noundef 1)
  br label %10

10:                                               ; preds = %8, %2
  %11 = load i32, ptr %4, align 4, !tbaa !19
  %12 = trunc i32 %11 to i8
  %13 = load ptr, ptr %3, align 8, !tbaa !4
  %14 = getelementptr inbounds nuw %struct.strbuf, ptr %13, i32 0, i32 2
  %15 = load ptr, ptr %14, align 8, !tbaa !11
  %16 = load ptr, ptr %3, align 8, !tbaa !4
  %17 = getelementptr inbounds nuw %struct.strbuf, ptr %16, i32 0, i32 1
  %18 = load i64, ptr %17, align 8, !tbaa !21
  %19 = add i64 %18, 1
  store i64 %19, ptr %17, align 8, !tbaa !21
  %20 = getelementptr inbounds nuw i8, ptr %15, i64 %18
  store i8 %12, ptr %20, align 1, !tbaa !14
  %21 = load ptr, ptr %3, align 8, !tbaa !4
  %22 = getelementptr inbounds nuw %struct.strbuf, ptr %21, i32 0, i32 2
  %23 = load ptr, ptr %22, align 8, !tbaa !11
  %24 = load ptr, ptr %3, align 8, !tbaa !4
  %25 = getelementptr inbounds nuw %struct.strbuf, ptr %24, i32 0, i32 1
  %26 = load i64, ptr %25, align 8, !tbaa !21
  %27 = getelementptr inbounds nuw i8, ptr %23, i64 %26
  store i8 0, ptr %27, align 1, !tbaa !14
  ret void
}

; Function Attrs: nounwind uwtable
define dso_local void @basic_regex_quote_buf(ptr noundef %0, ptr noundef %1) #0 {
  %3 = alloca ptr, align 8
  %4 = alloca ptr, align 8
  %5 = alloca i8, align 1
  store ptr %0, ptr %3, align 8, !tbaa !4
  store ptr %1, ptr %4, align 8, !tbaa !9
  call void @llvm.lifetime.start.p0(i64 1, ptr %5) #9
  %6 = load ptr, ptr %4, align 8, !tbaa !9
  %7 = load i8, ptr %6, align 1, !tbaa !14
  %8 = sext i8 %7 to i32
  %9 = icmp eq i32 %8, 94
  br i1 %9, label %10, label %17

10:                                               ; preds = %2
  %11 = load ptr, ptr %3, align 8, !tbaa !4
  call void @strbuf_addch(ptr noundef %11, i32 noundef 92)
  %12 = load ptr, ptr %3, align 8, !tbaa !4
  %13 = load ptr, ptr %4, align 8, !tbaa !9
  %14 = getelementptr inbounds nuw i8, ptr %13, i32 1
  store ptr %14, ptr %4, align 8, !tbaa !9
  %15 = load i8, ptr %13, align 1, !tbaa !14
  %16 = sext i8 %15 to i32
  call void @strbuf_addch(ptr noundef %12, i32 noundef %16)
  br label %17

17:                                               ; preds = %10, %2
  %18 = load ptr, ptr %4, align 8, !tbaa !9
  %19 = load i8, ptr %18, align 1, !tbaa !14
  %20 = sext i8 %19 to i32
  %21 = icmp eq i32 %20, 42
  br i1 %21, label %22, label %28

22:                                               ; preds = %17
  %23 = load ptr, ptr %3, align 8, !tbaa !4
  %24 = load ptr, ptr %4, align 8, !tbaa !9
  %25 = getelementptr inbounds nuw i8, ptr %24, i32 1
  store ptr %25, ptr %4, align 8, !tbaa !9
  %26 = load i8, ptr %24, align 1, !tbaa !14
  %27 = sext i8 %26 to i32
  call void @strbuf_addch(ptr noundef %23, i32 noundef %27)
  br label %28

28:                                               ; preds = %22, %17
  br label %29

29:                                               ; preds = %57, %28
  %30 = load ptr, ptr %4, align 8, !tbaa !9
  %31 = getelementptr inbounds nuw i8, ptr %30, i32 1
  store ptr %31, ptr %4, align 8, !tbaa !9
  %32 = load i8, ptr %30, align 1, !tbaa !14
  store i8 %32, ptr %5, align 1, !tbaa !14
  %33 = icmp ne i8 %32, 0
  br i1 %33, label %34, label %58

34:                                               ; preds = %29
  %35 = load i8, ptr %5, align 1, !tbaa !14
  %36 = sext i8 %35 to i32
  switch i32 %36, label %53 [
    i32 91, label %37
    i32 46, label %37
    i32 92, label %37
    i32 42, label %37
    i32 36, label %42
  ]

37:                                               ; preds = %34, %34, %34, %34
  %38 = load ptr, ptr %3, align 8, !tbaa !4
  call void @strbuf_addch(ptr noundef %38, i32 noundef 92)
  %39 = load ptr, ptr %3, align 8, !tbaa !4
  %40 = load i8, ptr %5, align 1, !tbaa !14
  %41 = sext i8 %40 to i32
  call void @strbuf_addch(ptr noundef %39, i32 noundef %41)
  br label %57

42:                                               ; preds = %34
  %43 = load ptr, ptr %4, align 8, !tbaa !9
  %44 = load i8, ptr %43, align 1, !tbaa !14
  %45 = sext i8 %44 to i32
  %46 = icmp eq i32 %45, 0
  br i1 %46, label %47, label %49

47:                                               ; preds = %42
  %48 = load ptr, ptr %3, align 8, !tbaa !4
  call void @strbuf_addch(ptr noundef %48, i32 noundef 92)
  br label %49

49:                                               ; preds = %47, %42
  %50 = load ptr, ptr %3, align 8, !tbaa !4
  %51 = load i8, ptr %5, align 1, !tbaa !14
  %52 = sext i8 %51 to i32
  call void @strbuf_addch(ptr noundef %50, i32 noundef %52)
  br label %57

53:                                               ; preds = %34
  %54 = load ptr, ptr %3, align 8, !tbaa !4
  %55 = load i8, ptr %5, align 1, !tbaa !14
  %56 = sext i8 %55 to i32
  call void @strbuf_addch(ptr noundef %54, i32 noundef %56)
  br label %57

57:                                               ; preds = %53, %49, %37
  br label %29, !llvm.loop !42

58:                                               ; preds = %29
  call void @llvm.lifetime.end.p0(i64 1, ptr %5) #9
  ret void
}