; Function Attrs: nounwind uwtable
define dso_local void @basic_regex_quote_buf(ptr noundef %0, ptr noundef readonly captures(none) %1) local_unnamed_addr #0 {
  %3 = load i8, ptr %1, align 1, !tbaa !13
  %4 = icmp eq i8 %3, 94
  br i1 %4, label %5, label %27

5:                                                ; preds = %2
  %6 = load i64, ptr %0, align 8, !tbaa !11
  %.not.i.i = icmp eq i64 %6, 0
  br i1 %.not.i.i, label %strbuf_avail.exit.thread.i, label %strbuf_avail.exit.i

strbuf_avail.exit.i:                              ; preds = %5
  %7 = getelementptr inbounds nuw i8, ptr %0, i64 8
  %8 = load i64, ptr %7, align 8, !tbaa !12
  %.neg.i = add i64 %8, 1
  %.not.i = icmp eq i64 %6, %.neg.i
  br i1 %.not.i, label %strbuf_avail.exit.thread.i, label %strbuf_addch.exit

strbuf_avail.exit.thread.i:                       ; preds = %strbuf_avail.exit.i, %5
  tail call void @strbuf_grow(ptr noundef nonnull %0, i64 noundef 1) #12
  %.phi.trans.insert.i = getelementptr inbounds nuw i8, ptr %0, i64 8
  %.pre.i = load i64, ptr %.phi.trans.insert.i, align 8, !tbaa !12
  %.pre7.i = add i64 %.pre.i, 1
  br label %strbuf_addch.exit

strbuf_addch.exit:                                ; preds = %strbuf_avail.exit.i, %strbuf_avail.exit.thread.i
  %.pre-phi.i = phi i64 [ %.pre7.i, %strbuf_avail.exit.thread.i ], [ %.neg.i, %strbuf_avail.exit.i ]
  %9 = phi i64 [ %.pre.i, %strbuf_avail.exit.thread.i ], [ %8, %strbuf_avail.exit.i ]
  %10 = getelementptr inbounds nuw i8, ptr %0, i64 16
  %11 = load ptr, ptr %10, align 8, !tbaa !4
  %12 = getelementptr inbounds nuw i8, ptr %0, i64 8
  store i64 %.pre-phi.i, ptr %12, align 8, !tbaa !12
  %13 = getelementptr inbounds nuw i8, ptr %11, i64 %9
  store i8 92, ptr %13, align 1, !tbaa !13
  %14 = load ptr, ptr %10, align 8, !tbaa !4
  %15 = load i64, ptr %12, align 8, !tbaa !12
  %16 = getelementptr inbounds nuw i8, ptr %14, i64 %15
  store i8 0, ptr %16, align 1, !tbaa !13
  %17 = getelementptr inbounds nuw i8, ptr %1, i64 1
  %18 = load i8, ptr %1, align 1, !tbaa !13
  %19 = load i64, ptr %0, align 8, !tbaa !11
  %.not.i.i20 = icmp eq i64 %19, 0
  br i1 %.not.i.i20, label %strbuf_avail.exit.thread.i25, label %strbuf_avail.exit.i21

strbuf_avail.exit.i21:                            ; preds = %strbuf_addch.exit
  %20 = load i64, ptr %12, align 8, !tbaa !12
  %.neg.i22 = add i64 %20, 1
  %.not.i23 = icmp eq i64 %19, %.neg.i22
  br i1 %.not.i23, label %strbuf_avail.exit.thread.i25, label %strbuf_addch.exit29

strbuf_avail.exit.thread.i25:                     ; preds = %strbuf_avail.exit.i21, %strbuf_addch.exit
  tail call void @strbuf_grow(ptr noundef nonnull %0, i64 noundef 1) #12
  %.pre.i27 = load i64, ptr %12, align 8, !tbaa !12
  %.pre7.i28 = add i64 %.pre.i27, 1
  br label %strbuf_addch.exit29

strbuf_addch.exit29:                              ; preds = %strbuf_avail.exit.i21, %strbuf_avail.exit.thread.i25
  %.pre-phi.i24 = phi i64 [ %.pre7.i28, %strbuf_avail.exit.thread.i25 ], [ %.neg.i22, %strbuf_avail.exit.i21 ]
  %21 = phi i64 [ %.pre.i27, %strbuf_avail.exit.thread.i25 ], [ %20, %strbuf_avail.exit.i21 ]
  %22 = load ptr, ptr %10, align 8, !tbaa !4
  store i64 %.pre-phi.i24, ptr %12, align 8, !tbaa !12
  %23 = getelementptr inbounds nuw i8, ptr %22, i64 %21
  store i8 %18, ptr %23, align 1, !tbaa !13
  %24 = load ptr, ptr %10, align 8, !tbaa !4
  %25 = load i64, ptr %12, align 8, !tbaa !12
  %26 = getelementptr inbounds nuw i8, ptr %24, i64 %25
  store i8 0, ptr %26, align 1, !tbaa !13
  %.pr = load i8, ptr %17, align 1, !tbaa !13
  br label %27

27:                                               ; preds = %strbuf_addch.exit29, %2
  %28 = phi i8 [ %.pr, %strbuf_addch.exit29 ], [ %3, %2 ]
  %.0 = phi ptr [ %17, %strbuf_addch.exit29 ], [ %1, %2 ]
  %29 = icmp eq i8 %28, 42
  br i1 %29, label %30, label %43

30:                                               ; preds = %27
  %31 = getelementptr inbounds nuw i8, ptr %.0, i64 1
  %32 = load i64, ptr %0, align 8, !tbaa !11
  %.not.i.i30 = icmp eq i64 %32, 0
  br i1 %.not.i.i30, label %strbuf_avail.exit.thread.i35, label %strbuf_avail.exit.i31

strbuf_avail.exit.i31:                            ; preds = %30
  %33 = getelementptr inbounds nuw i8, ptr %0, i64 8
  %34 = load i64, ptr %33, align 8, !tbaa !12
  %.neg.i32 = add i64 %34, 1
  %.not.i33 = icmp eq i64 %32, %.neg.i32
  br i1 %.not.i33, label %strbuf_avail.exit.thread.i35, label %strbuf_addch.exit39

strbuf_avail.exit.thread.i35:                     ; preds = %strbuf_avail.exit.i31, %30
  tail call void @strbuf_grow(ptr noundef nonnull %0, i64 noundef 1) #12
  %.phi.trans.insert.i36 = getelementptr inbounds nuw i8, ptr %0, i64 8
  %.pre.i37 = load i64, ptr %.phi.trans.insert.i36, align 8, !tbaa !12
  %.pre7.i38 = add i64 %.pre.i37, 1
  br label %strbuf_addch.exit39

strbuf_addch.exit39:                              ; preds = %strbuf_avail.exit.i31, %strbuf_avail.exit.thread.i35
  %.pre-phi.i34 = phi i64 [ %.pre7.i38, %strbuf_avail.exit.thread.i35 ], [ %.neg.i32, %strbuf_avail.exit.i31 ]
  %35 = phi i64 [ %.pre.i37, %strbuf_avail.exit.thread.i35 ], [ %34, %strbuf_avail.exit.i31 ]
  %36 = getelementptr inbounds nuw i8, ptr %0, i64 16
  %37 = load ptr, ptr %36, align 8, !tbaa !4
  %38 = getelementptr inbounds nuw i8, ptr %0, i64 8
  store i64 %.pre-phi.i34, ptr %38, align 8, !tbaa !12
  %39 = getelementptr inbounds nuw i8, ptr %37, i64 %35
  store i8 42, ptr %39, align 1, !tbaa !13
  %40 = load ptr, ptr %36, align 8, !tbaa !4
  %41 = load i64, ptr %38, align 8, !tbaa !12
  %42 = getelementptr inbounds nuw i8, ptr %40, i64 %41
  store i8 0, ptr %42, align 1, !tbaa !13
  br label %43

43:                                               ; preds = %strbuf_addch.exit39, %27
  %.1 = phi ptr [ %31, %strbuf_addch.exit39 ], [ %.0, %27 ]
  %44 = getelementptr inbounds nuw i8, ptr %0, i64 8
  %45 = getelementptr inbounds nuw i8, ptr %0, i64 16
  br label %46

46:                                               ; preds = %strbuf_addch.exit59, %43
  %.2 = phi ptr [ %.1, %43 ], [ %47, %strbuf_addch.exit59 ]
  %47 = getelementptr inbounds nuw i8, ptr %.2, i64 1
  %48 = load i8, ptr %.2, align 1, !tbaa !13
  switch i8 %48, label %75 [
    i8 0, label %83
    i8 91, label %49
    i8 46, label %49
    i8 92, label %49
    i8 42, label %49
    i8 36, label %60
  ]

49:                                               ; preds = %46, %46, %46, %46
  %50 = load i64, ptr %0, align 8, !tbaa !11
  %.not.i.i40 = icmp eq i64 %50, 0
  br i1 %.not.i.i40, label %strbuf_avail.exit.thread.i45, label %strbuf_avail.exit.i41

strbuf_avail.exit.i41:                            ; preds = %49
  %51 = load i64, ptr %44, align 8, !tbaa !12
  %.neg.i42 = add i64 %51, 1
  %.not.i43 = icmp eq i64 %50, %.neg.i42
  br i1 %.not.i43, label %strbuf_avail.exit.thread.i45, label %strbuf_addch.exit49

strbuf_avail.exit.thread.i45:                     ; preds = %strbuf_avail.exit.i41, %49
  tail call void @strbuf_grow(ptr noundef nonnull %0, i64 noundef 1) #12
  %.pre.i47 = load i64, ptr %44, align 8, !tbaa !12
  %.pre7.i48 = add i64 %.pre.i47, 1
  br label %strbuf_addch.exit49

strbuf_addch.exit49:                              ; preds = %strbuf_avail.exit.i41, %strbuf_avail.exit.thread.i45
  %.pre-phi.i44 = phi i64 [ %.pre7.i48, %strbuf_avail.exit.thread.i45 ], [ %.neg.i42, %strbuf_avail.exit.i41 ]
  %52 = phi i64 [ %.pre.i47, %strbuf_avail.exit.thread.i45 ], [ %51, %strbuf_avail.exit.i41 ]
  %53 = load ptr, ptr %45, align 8, !tbaa !4
  store i64 %.pre-phi.i44, ptr %44, align 8, !tbaa !12
  %54 = getelementptr inbounds nuw i8, ptr %53, i64 %52
  store i8 92, ptr %54, align 1, !tbaa !13
  %55 = load ptr, ptr %45, align 8, !tbaa !4
  %56 = load i64, ptr %44, align 8, !tbaa !12
  %57 = getelementptr inbounds nuw i8, ptr %55, i64 %56
  store i8 0, ptr %57, align 1, !tbaa !13
  %58 = load i64, ptr %0, align 8, !tbaa !11
  %.not.i.i50 = icmp eq i64 %58, 0
  br i1 %.not.i.i50, label %strbuf_addch.exit59.sink.split, label %strbuf_avail.exit.i51

strbuf_avail.exit.i51:                            ; preds = %strbuf_addch.exit49
  %59 = load i64, ptr %44, align 8, !tbaa !12
  %.neg.i52 = add i64 %59, 1
  %.not.i53 = icmp eq i64 %58, %.neg.i52
  br i1 %.not.i53, label %strbuf_addch.exit59.sink.split, label %strbuf_addch.exit59

60:                                               ; preds = %46
  %61 = load i8, ptr %47, align 1, !tbaa !13
  %62 = icmp eq i8 %61, 0
  br i1 %62, label %63, label %72

63:                                               ; preds = %60
  %64 = load i64, ptr %0, align 8, !tbaa !11
  %.not.i.i60 = icmp eq i64 %64, 0
  br i1 %.not.i.i60, label %strbuf_avail.exit.thread.i65, label %strbuf_avail.exit.i61

strbuf_avail.exit.i61:                            ; preds = %63
  %65 = load i64, ptr %44, align 8, !tbaa !12
  %.neg.i62 = add i64 %65, 1
  %.not.i63 = icmp eq i64 %64, %.neg.i62
  br i1 %.not.i63, label %strbuf_avail.exit.thread.i65, label %strbuf_addch.exit69

strbuf_avail.exit.thread.i65:                     ; preds = %strbuf_avail.exit.i61, %63
  tail call void @strbuf_grow(ptr noundef nonnull %0, i64 noundef 1) #12
  %.pre.i67 = load i64, ptr %44, align 8, !tbaa !12
  %.pre7.i68 = add i64 %.pre.i67, 1
  br label %strbuf_addch.exit69

strbuf_addch.exit69:                              ; preds = %strbuf_avail.exit.i61, %strbuf_avail.exit.thread.i65
  %.pre-phi.i64 = phi i64 [ %.pre7.i68, %strbuf_avail.exit.thread.i65 ], [ %.neg.i62, %strbuf_avail.exit.i61 ]
  %66 = phi i64 [ %.pre.i67, %strbuf_avail.exit.thread.i65 ], [ %65, %strbuf_avail.exit.i61 ]
  %67 = load ptr, ptr %45, align 8, !tbaa !4
  store i64 %.pre-phi.i64, ptr %44, align 8, !tbaa !12
  %68 = getelementptr inbounds nuw i8, ptr %67, i64 %66
  store i8 92, ptr %68, align 1, !tbaa !13
  %69 = load ptr, ptr %45, align 8, !tbaa !4
  %70 = load i64, ptr %44, align 8, !tbaa !12
  %71 = getelementptr inbounds nuw i8, ptr %69, i64 %70
  store i8 0, ptr %71, align 1, !tbaa !13
  br label %72

72:                                               ; preds = %strbuf_addch.exit69, %60
  %73 = load i64, ptr %0, align 8, !tbaa !11
  %.not.i.i70 = icmp eq i64 %73, 0
  br i1 %.not.i.i70, label %strbuf_addch.exit59.sink.split, label %strbuf_avail.exit.i71

strbuf_avail.exit.i71:                            ; preds = %72
  %74 = load i64, ptr %44, align 8, !tbaa !12
  %.neg.i72 = add i64 %74, 1
  %.not.i73 = icmp eq i64 %73, %.neg.i72
  br i1 %.not.i73, label %strbuf_addch.exit59.sink.split, label %strbuf_addch.exit59

75:                                               ; preds = %46
  %76 = load i64, ptr %0, align 8, !tbaa !11
  %.not.i.i80 = icmp eq i64 %76, 0
  br i1 %.not.i.i80, label %strbuf_addch.exit59.sink.split, label %strbuf_avail.exit.i81

strbuf_avail.exit.i81:                            ; preds = %75
  %77 = load i64, ptr %44, align 8, !tbaa !12
  %.neg.i82 = add i64 %77, 1
  %.not.i83 = icmp eq i64 %76, %.neg.i82
  br i1 %.not.i83, label %strbuf_addch.exit59.sink.split, label %strbuf_addch.exit59

strbuf_addch.exit59.sink.split:                   ; preds = %75, %strbuf_avail.exit.i81, %72, %strbuf_avail.exit.i71, %strbuf_addch.exit49, %strbuf_avail.exit.i51
  %.sink.ph = phi i8 [ %48, %strbuf_avail.exit.i51 ], [ %48, %strbuf_addch.exit49 ], [ 36, %strbuf_avail.exit.i71 ], [ 36, %72 ], [ %48, %strbuf_avail.exit.i81 ], [ %48, %75 ]
  tail call void @strbuf_grow(ptr noundef nonnull %0, i64 noundef 1) #12
  %.pre.i87 = load i64, ptr %44, align 8, !tbaa !12
  %.pre7.i88 = add i64 %.pre.i87, 1
  br label %strbuf_addch.exit59

strbuf_addch.exit59:                              ; preds = %strbuf_addch.exit59.sink.split, %strbuf_avail.exit.i81, %strbuf_avail.exit.i71, %strbuf_avail.exit.i51
  %.pre-phi.i84.sink = phi i64 [ %.neg.i52, %strbuf_avail.exit.i51 ], [ %.neg.i72, %strbuf_avail.exit.i71 ], [ %.neg.i82, %strbuf_avail.exit.i81 ], [ %.pre7.i88, %strbuf_addch.exit59.sink.split ]
  %.sink94 = phi i64 [ %59, %strbuf_avail.exit.i51 ], [ %74, %strbuf_avail.exit.i71 ], [ %77, %strbuf_avail.exit.i81 ], [ %.pre.i87, %strbuf_addch.exit59.sink.split ]
  %.sink = phi i8 [ %48, %strbuf_avail.exit.i51 ], [ 36, %strbuf_avail.exit.i71 ], [ %48, %strbuf_avail.exit.i81 ], [ %.sink.ph, %strbuf_addch.exit59.sink.split ]
  %78 = load ptr, ptr %45, align 8, !tbaa !4
  store i64 %.pre-phi.i84.sink, ptr %44, align 8, !tbaa !12
  %79 = getelementptr inbounds nuw i8, ptr %78, i64 %.sink94
  store i8 %.sink, ptr %79, align 1, !tbaa !13
  %80 = load ptr, ptr %45, align 8, !tbaa !4
  %81 = load i64, ptr %44, align 8, !tbaa !12
  %82 = getelementptr inbounds nuw i8, ptr %80, i64 %81
  store i8 0, ptr %82, align 1, !tbaa !13
  br label %46, !llvm.loop !32

83:                                               ; preds = %46
  ret void
}